target datalayout = "e-m:e-p270:32:32-p271:32:32-p272:64:64-i64:64-i128:128-f80:128-n8:16:32:64-S128"
target triple = "x86_64-pc-linux-gnu"

%"struct.std::atomic.0" = type { %"struct.std::__atomic_base.1" }
%"struct.std::__atomic_base.1" = type { i32 }
%"class.enki::ICompletable" = type { ptr, i32, %"struct.std::atomic.0", %"struct.std::atomic.0", i32, %"struct.std::atomic.0", ptr }
%"class.enki::Dependency" = type { ptr, ptr, ptr }

; Function Attrs: mustprogress nounwind uwtable
define linkonce_odr dso_local noundef i32 @_ZStanSt12memory_orderSt23__memory_order_modifier(i32 noundef %0, i32 noundef %1) #5 comdat {
  %3 = alloca i32, align 4
  %4 = alloca i32, align 4
  store i32 %0, ptr %3, align 4, !tbaa !72
  store i32 %1, ptr %4, align 4, !tbaa !195
  %5 = load i32, ptr %3, align 4, !tbaa !72
  %6 = load i32, ptr %4, align 4, !tbaa !195
  %7 = and i32 %5, %6
  ret i32 %7
}

; Function Attrs: alwaysinline mustprogress nounwind uwtable
define linkonce_odr dso_local void @_ZNSt13__atomic_baseIiE5storeEiSt12memory_order(ptr noundef nonnull align 4 dereferenceable(4) %0, i32 noundef %1, i32 noundef %2) #9 comdat align 2 {
  %4 = alloca ptr, align 8
  %5 = alloca i32, align 4
  %6 = alloca i32, align 4
  %7 = alloca i32, align 4
  %8 = alloca i32, align 4
  store ptr %0, ptr %4, align 8, !tbaa !68
  store i32 %1, ptr %5, align 4, !tbaa !11
  store i32 %2, ptr %6, align 4, !tbaa !72
  %9 = load ptr, ptr %4, align 8
  call void @llvm.lifetime.start.p0(i64 4, ptr %7) #14
  %10 = load i32, ptr %6, align 4, !tbaa !72
  %11 = call noundef i32 @_ZStanSt12memory_orderSt23__memory_order_modifier(i32 noundef %10, i32 noundef 65535)
  store i32 %11, ptr %7, align 4, !tbaa !72
  br label %12

12:                                               ; preds = %3
  br label %13

13:                                               ; preds = %12
  br label %14

14:                                               ; preds = %13
  br label %15

15:                                               ; preds = %14
  br label %16

16:                                               ; preds = %15
  br label %17

17:                                               ; preds = %16
  br label %18

18:                                               ; preds = %17
  br label %19

19:                                               ; preds = %18
  br label %20

20:                                               ; preds = %19
  %21 = getelementptr inbounds nuw %"struct.std::__atomic_base.1", ptr %9, i32 0, i32 0
  %22 = load i32, ptr %6, align 4, !tbaa !72
  %23 = load i32, ptr %5, align 4, !tbaa !11
  store i32 %23, ptr %8, align 4, !tbaa !11
  switch i32 %22, label %24 [
    i32 3, label %26
    i32 5, label %28
  ]

24:                                               ; preds = %20
  %25 = load i32, ptr %8, align 4
  store atomic i32 %25, ptr %21 monotonic, align 4
  br label %30

26:                                               ; preds = %20
  %27 = load i32, ptr %8, align 4
  store atomic i32 %27, ptr %21 release, align 4
  br label %30

28:                                               ; preds = %20
  %29 = load i32, ptr %8, align 4
  store atomic i32 %29, ptr %21 seq_cst, align 4
  br label %30

30:                                               ; preds = %28, %26, %24
  call void @llvm.lifetime.end.p0(i64 4, ptr %7) #14
  ret void
}

; Function Attrs: alwaysinline mustprogress nounwind uwtable
define linkonce_odr dso_local noundef i32 @_ZNKSt13__atomic_baseIiE4loadESt12memory_order(ptr noundef nonnull align 4 dereferenceable(4) %0, i32 noundef %1) #9 comdat align 2 {
  %3 = alloca ptr, align 8
  %4 = alloca i32, align 4
  %5 = alloca i32, align 4
  %6 = alloca i32, align 4
  store ptr %0, ptr %3, align 8, !tbaa !68
  store i32 %1, ptr %4, align 4, !tbaa !72
  %7 = load ptr, ptr %3, align 8
  call void @llvm.lifetime.start.p0(i64 4, ptr %5) #14
  %8 = load i32, ptr %4, align 4, !tbaa !72
  %9 = call noundef i32 @_ZStanSt12memory_orderSt23__memory_order_modifier(i32 noundef %8, i32 noundef 65535)
  store i32 %9, ptr %5, align 4, !tbaa !72
  br label %10

10:                                               ; preds = %2
  br label %11

11:                                               ; preds = %10
  br label %12

12:                                               ; preds = %11
  br label %13

13:                                               ; preds = %12
  br label %14

14:                                               ; preds = %13
  br label %15

15:                                               ; preds = %14
  %16 = getelementptr inbounds nuw %"struct.std::__atomic_base.1", ptr %7, i32 0, i32 0
  %17 = load i32, ptr %4, align 4, !tbaa !72
  switch i32 %17, label %18 [
    i32 1, label %20
    i32 2, label %20
    i32 5, label %22
  ]

18:                                               ; preds = %15
  %19 = load atomic i32, ptr %16 monotonic, align 4
  store i32 %19, ptr %6, align 4
  br label %24

20:                                               ; preds = %15, %15
  %21 = load atomic i32, ptr %16 acquire, align 4
  store i32 %21, ptr %6, align 4
  br label %24

22:                                               ; preds = %15
  %23 = load atomic i32, ptr %16 seq_cst, align 4
  store i32 %23, ptr %6, align 4
  br label %24

24:                                               ; preds = %22, %20, %18
  %25 = load i32, ptr %6, align 4, !tbaa !11
  call void @llvm.lifetime.end.p0(i64 4, ptr %5) #14
  ret i32 %25
}

; Function Attrs: mustprogress uwtable
define dso_local void @_ZN4enki13TaskScheduler16InitDependenciesEPNS_12ICompletableE(ptr noundef nonnull align 8 dereferenceable(220) %0, ptr noundef %1) #0 align 2 {
  %3 = alloca ptr, align 8
  %4 = alloca ptr, align 8
  %5 = alloca ptr, align 8
  store ptr %0, ptr %3, align 8, !tbaa !4
  store ptr %1, ptr %4, align 8, !tbaa !54
  %6 = load ptr, ptr %3, align 8
  %7 = load ptr, ptr %4, align 8, !tbaa !54
  %8 = getelementptr inbounds nuw %"class.enki::ICompletable", ptr %7, i32 0, i32 2
  %9 = call noundef i32 @_ZNKSt13__atomic_baseIiE4loadESt12memory_order(ptr noundef nonnull align 4 dereferenceable(4) %8, i32 noundef 0) #14
  %10 = icmp ne i32 %9, 0
  br i1 %10, label %11, label %12

11:                                               ; preds = %2
  br label %31

12:                                               ; preds = %2
  call void @llvm.lifetime.start.p0(i64 8, ptr %5) #14
  %13 = load ptr, ptr %4, align 8, !tbaa !54
  %14 = getelementptr inbounds nuw %"class.enki::ICompletable", ptr %13, i32 0, i32 6
  %15 = load ptr, ptr %14, align 8, !tbaa !138
  store ptr %15, ptr %5, align 8, !tbaa !139
  br label %16

16:                                               ; preds = %19, %12
  %17 = load ptr, ptr %5, align 8, !tbaa !139
  %18 = icmp ne ptr %17, null
  br i1 %18, label %19, label %30

19:                                               ; preds = %16
  %20 = load ptr, ptr %5, align 8, !tbaa !139
  %21 = getelementptr inbounds nuw %"class.enki::Dependency", ptr %20, i32 0, i32 0
  %22 = load ptr, ptr %21, align 8, !tbaa !140
  call void @_ZN4enki13TaskScheduler16InitDependenciesEPNS_12ICompletableE(ptr noundef nonnull align 8 dereferenceable(220) %6, ptr noundef %22)
  %23 = load ptr, ptr %5, align 8, !tbaa !139
  %24 = getelementptr inbounds nuw %"class.enki::Dependency", ptr %23, i32 0, i32 0
  %25 = load ptr, ptr %24, align 8, !tbaa !140
  %26 = getelementptr inbounds nuw %"class.enki::ICompletable", ptr %25, i32 0, i32 2
  call void @_ZNSt13__atomic_baseIiE5storeEiSt12memory_order(ptr noundef nonnull align 4 dereferenceable(4) %26, i32 noundef 2, i32 noundef 0) #14
  %27 = load ptr, ptr %5, align 8, !tbaa !139
  %28 = getelementptr inbounds nuw %"class.enki::Dependency", ptr %27, i32 0, i32 2
  %29 = load ptr, ptr %28, align 8, !tbaa !143
  store ptr %29, ptr %5, align 8, !tbaa !139
  br label %16, !llvm.loop !156

30:                                               ; preds = %16
  call void @llvm.lifetime.end.p0(i64 8, ptr %5) #14
  br label %31

31:                                               ; preds = %30, %11
  ret void
}