; Function Attrs: mustprogress nofree nounwind memory(readwrite, inaccessiblemem: none) uwtable
define dso_local void @_ZN4enki13TaskScheduler16InitDependenciesEPNS_12ICompletableE(ptr noundef nonnull readnone align 8 captures(none) dereferenceable(220) %0, ptr noundef readonly captures(none) %1) local_unnamed_addr #19 align 2 {
  %3 = getelementptr inbounds nuw i8, ptr %1, i64 12
  %4 = load atomic i32, ptr %3 monotonic, align 4
  %.not = icmp eq i32 %4, 0
  br i1 %.not, label %5, label %.loopexit

5:                                                ; preds = %2
  %6 = getelementptr inbounds nuw i8, ptr %1, i64 32
  %.08 = load ptr, ptr %6, align 8, !tbaa !123
  %.not79 = icmp eq ptr %.08, null
  br i1 %.not79, label %.loopexit, label %.lr.ph

.lr.ph:                                           ; preds = %5, %.lr.ph
  %.010 = phi ptr [ %.0, %.lr.ph ], [ %.08, %5 ]
  %7 = load ptr, ptr %.010, align 8, !tbaa !35
  tail call void @_ZN4enki13TaskScheduler16InitDependenciesEPNS_12ICompletableE(ptr noundef nonnull align 8 dereferenceable(220) %0, ptr noundef %7)
  %8 = load ptr, ptr %.010, align 8, !tbaa !35
  %9 = getelementptr inbounds nuw i8, ptr %8, i64 12
  store atomic i32 2, ptr %9 monotonic, align 4
  %10 = getelementptr inbounds nuw i8, ptr %.010, i64 16
  %.0 = load ptr, ptr %10, align 8, !tbaa !123
  %.not7 = icmp eq ptr %.0, null
  br i1 %.not7, label %.loopexit, label %.lr.ph, !llvm.loop !124

.loopexit:                                        ; preds = %.lr.ph, %5, %2
  ret void
}